target datalayout = "e-m:e-p270:32:32-p271:32:32-p272:64:64-i64:64-i128:128-f80:128-n8:16:32:64-S128"
target triple = "x86_64-pc-linux-gnu"

%struct._GArray = type { ptr, i32 }

; Function Attrs: null_pointer_is_valid sspstrong uwtable
define void @wtap_block_array_unref(ptr noundef %0) #0 {
  %2 = alloca ptr, align 8
  %3 = alloca i32, align 4
  %4 = alloca i32, align 4
  store ptr %0, ptr %2, align 8
  call void @llvm.lifetime.start.p0(i64 4, ptr %3) #15
  %5 = load ptr, ptr %2, align 8
  %6 = icmp eq ptr %5, null
  br i1 %6, label %7, label %8

7:                                                ; preds = %1
  store i32 1, ptr %4, align 4
  br label %28

8:                                                ; preds = %1
  store i32 0, ptr %3, align 4
  br label %9

9:                                                ; preds = %23, %8
  %10 = load i32, ptr %3, align 4
  %11 = load ptr, ptr %2, align 8
  %12 = getelementptr inbounds nuw %struct._GArray, ptr %11, i32 0, i32 1
  %13 = load i32, ptr %12, align 8
  %14 = icmp ult i32 %10, %13
  br i1 %14, label %15, label %26

15:                                               ; preds = %9
  %16 = load ptr, ptr %2, align 8
  %17 = getelementptr inbounds nuw %struct._GArray, ptr %16, i32 0, i32 0
  %18 = load ptr, ptr %17, align 8
  %19 = load i32, ptr %3, align 4
  %20 = zext i32 %19 to i64
  %21 = getelementptr ptr, ptr %18, i64 %20
  %22 = load ptr, ptr %21, align 8
  call void @wtap_block_unref(ptr noundef %22)
  br label %23

23:                                               ; preds = %15
  %24 = load i32, ptr %3, align 4
  %25 = add i32 %24, 1
  store i32 %25, ptr %3, align 4
  br label %9, !llvm.loop !10

26:                                               ; preds = %9
  %27 = load ptr, ptr %2, align 8
  call void @g_array_unref(ptr noundef %27)
  store i32 0, ptr %4, align 4
  br label %28

28:                                               ; preds = %26, %7
  call void @llvm.lifetime.end.p0(i64 4, ptr %3) #15
  %29 = load i32, ptr %4, align 4
  switch i32 %29, label %31 [
    i32 0, label %30
    i32 1, label %30
  ]

30:                                               ; preds = %28, %28
  ret void

31:                                               ; preds = %28
  unreachable
}