; Function Attrs: null_pointer_is_valid sspstrong uwtable
define void @wtap_block_array_unref(ptr noundef %0) local_unnamed_addr #0 {
  %2 = icmp eq ptr %0, null
  br i1 %2, label %11, label %.preheader

.preheader:                                       ; preds = %1
  %3 = getelementptr inbounds nuw i8, ptr %0, i64 8
  %4 = load i32, ptr %3, align 8
  %.not = icmp eq i32 %4, 0
  br i1 %.not, label %._crit_edge, label %.lr.ph

.lr.ph:                                           ; preds = %.preheader, %.lr.ph
  %indvars.iv = phi i64 [ %indvars.iv.next, %.lr.ph ], [ 0, %.preheader ]
  %5 = load ptr, ptr %0, align 8
  %6 = getelementptr ptr, ptr %5, i64 %indvars.iv
  %7 = load ptr, ptr %6, align 8
  tail call void @wtap_block_unref(ptr noundef %7)
  %indvars.iv.next = add nuw nsw i64 %indvars.iv, 1
  %8 = load i32, ptr %3, align 8
  %9 = zext i32 %8 to i64
  %10 = icmp samesign ult i64 %indvars.iv.next, %9
  br i1 %10, label %.lr.ph, label %._crit_edge, !llvm.loop !10

._crit_edge:                                      ; preds = %.lr.ph, %.preheader
  tail call void @g_array_unref(ptr noundef nonnull %0)
  br label %11

11:                                               ; preds = %1, %._crit_edge
  ret void
}